(dp1
S' c'
p2
(lp3
I39
aI45
aI51
aI57
aI63
aI69
aI75
aI81
aI84
aI85
aI86
aI87
aI87
aI88
aI89
aI90
aI91
aI92
aI93
aI93
aI94
aI95
aI99
aI105
aI111
aI114
aI115
aI116
aI117
aI117
aI118
aI119
aI120
aI121
aI122
aI123
aI123
aI124
aI125
asS'gu'
p4
(lp5
I14
aI15
aI16
aI17
aI40
aI46
aI52
aI58
aI64
aI70
aI76
aI82
aI88
aI94
aI96
aI97
aI98
aI99
aI100
aI100
aI101
aI102
aI103
aI104
aI105
aI106
aI106
aI107
aI108
aI109
aI110
aI111
aI112
aI112
aI113
aI114
aI115
aI116
aI117
aI118
aI118
aI119
aI120
aI121
aI122
aI123
aI124
aI124
aI125
asS' a'
p6
(lp7
I20
aI21
aI21
aI22
aI22
aI31
asS' f'
p8
(lp9
I13
asS'gr'
p10
(lp11
I14
aI15
aI42
aI43
aI44
aI45
aI46
aI47
aI48
aI49
aI50
aI51
aI52
aI53
aI72
aI73
aI74
aI75
aI76
aI77
aI78
aI79
aI80
aI81
aI82
aI83
aI102
aI103
aI104
aI105
aI106
aI107
aI108
aI109
aI110
aI111
aI112
aI113
asS' d'
p12
(lp13
I11
asS'dy'
p14
(lp15
I9
asS' l'
p16
(lp17
I14
aI15
aI16
aI17
asS' s'
p18
(lp19
I36
aI38
aI41
aI42
aI44
aI47
aI48
aI50
aI53
aI54
aI56
aI59
aI60
aI62
aI65
aI66
aI66
aI67
aI68
aI68
aI69
aI70
aI71
aI71
aI72
aI74
aI77
aI78
aI80
aI83
aI84
aI86
aI89
aI90
aI92
aI95
aI96
aI96
aI97
aI98
aI98
aI99
aI100
aI101
aI101
aI102
aI104
aI107
aI108
aI110
aI113
aI114
aI116
aI119
aI120
aI122
aI125
asS'ge'
p20
(lp21
I14
aI15
aI16
aI17
aI66
aI67
aI68
aI69
aI70
aI71
aI72
aI73
aI74
aI75
aI76
aI77
aI78
aI79
aI80
aI81
aI82
aI83
aI84
aI85
aI86
aI87
aI88
aI89
aI90
aI91
aI92
aI93
aI94
aI95
aI96
aI97
aI98
aI99
aI100
aI101
aI102
aI103
aI104
aI105
aI106
aI107
aI108
aI109
aI110
aI111
aI112
aI113
aI114
aI115
aI116
aI117
aI118
aI119
aI120
aI121
aI122
aI123
aI124
aI125
asS' v'
p22
(lp23
I1
asS' w'
p24
(lp25
I29
asS'ga'
p26
(lp27
I4
asS'gi'
p28
(lp29
I26
asS' g'
p30
(lp31
I40
aI46
aI52
aI58
aI64
aI70
aI76
aI82
aI88
aI94
aI100
aI106
aI112
aI118
aI124
asS'le'
p32
(lp33
I5
aI13
aI31
aI41
aI47
aI53
aI59
aI65
aI71
aI77
aI83
aI89
aI95
aI101
aI107
aI113
aI119
aI125
asS'ty'
p34
(lp35
I0
aI41
aI47
aI53
aI59
aI65
aI71
aI77
aI83
aI89
aI95
aI101
aI107
aI113
aI119
aI125
asS'lo'
p36
(lp37
I33
asS'tt'
p38
(lp39
I11
aI29
asS'tu'
p40
(lp41
I3
asS'bl'
p42
(lp43
I33
asS'li'
p44
(lp45
I40
aI46
aI52
aI58
aI64
aI70
aI76
aI82
aI88
aI94
aI100
aI106
aI112
aI118
aI124
asS'th'
p46
(lp47
I0
asS'ti'
p48
(lp49
I3
aI3
aI4
aI20
aI21
aI22
aI30
aI31
aI36
aI39
aI42
aI45
aI48
aI51
aI54
aI57
aI60
aI63
aI66
aI69
aI72
aI75
aI78
aI81
aI84
aI87
aI90
aI93
aI96
aI99
aI102
aI105
aI108
aI111
aI114
aI117
aI120
aI123
asS'te'
p50
(lp51
I11
aI13
aI16
aI29
aI34
asS'ra'
p52
(lp53
I14
aI15
aI42
aI43
aI44
aI45
aI46
aI47
aI48
aI49
aI50
aI51
aI52
aI53
aI66
aI67
aI68
aI69
aI70
aI71
aI72
aI72
aI73
aI73
aI74
aI74
aI75
aI75
aI76
aI76
aI77
aI77
aI78
aI78
aI79
aI79
aI80
aI80
aI81
aI81
aI82
aI82
aI83
aI83
aI84
aI85
aI86
aI87
aI88
aI89
aI90
aI91
aI92
aI93
aI94
aI95
aI102
aI103
aI104
aI105
aI106
aI107
aI108
aI109
aI110
aI111
aI112
aI113
asS'do'
p54
(lp55
I10
aI11
asS' i'
p56
(lp57
I37
aI43
aI49
aI55
aI61
aI67
aI73
aI79
aI85
aI91
aI97
aI103
aI109
aI115
aI121
asS'yl'
p58
(lp59
I41
aI47
aI53
aI59
aI65
aI71
aI77
aI83
aI89
aI95
aI101
aI107
aI113
aI119
aI125
asS'di'
p60
(lp61
I7
aI17
aI37
aI43
aI49
aI55
aI60
aI61
aI61
aI62
aI63
aI64
aI65
aI67
aI73
aI79
aI85
aI90
aI91
aI91
aI92
aI93
aI94
aI95
aI97
aI103
aI109
aI115
aI120
aI121
aI121
aI122
aI123
aI124
aI125
asS'de'
p62
(lp63
I40
aI46
aI52
aI54
aI55
aI56
aI57
aI58
aI58
aI59
aI64
aI70
aI76
aI82
aI84
aI85
aI86
aI87
aI88
aI88
aI89
aI94
aI100
aI106
aI112
aI114
aI115
aI116
aI117
aI118
aI118
aI119
aI124
asS'd '
p64
(lp65
I21
aI22
asS'g '
p66
(lp67
I14
aI17
aI42
aI43
aI44
aI45
aI46
aI47
aI60
aI61
aI62
aI63
aI64
aI65
aI72
aI73
aI74
aI75
aI76
aI77
aI90
aI91
aI92
aI93
aI94
aI95
aI102
aI103
aI104
aI105
aI106
aI107
aI120
aI121
aI122
aI123
aI124
aI125
asS'du'
p68
(lp69
I7
asS's '
p70
(lp71
I22
asS'qu'
p72
(lp73
I20
aI21
aI22
asS'l '
p74
(lp75
I66
aI67
aI68
aI69
aI70
aI71
aI72
aI73
aI74
aI75
aI76
aI77
aI78
aI79
aI80
aI81
aI82
aI83
aI84
aI85
aI86
aI87
aI88
aI89
aI90
aI91
aI92
aI93
aI94
aI95
asS' p'
p76
(lp77
I72
aI73
aI74
aI75
aI76
aI77
aI78
aI79
aI80
aI81
aI82
aI83
aI102
aI103
aI104
aI105
aI106
aI107
aI108
aI109
aI110
aI111
aI112
aI113
asS'qa'
p78
(lp79
I23
asS'ut'
p80
(lp81
I0
aI3
aI16
asS't '
p82
(lp83
I1
aI13
asS'el'
p84
(lp85
I40
aI46
aI52
aI58
aI64
aI70
aI76
aI82
aI88
aI94
aI100
aI106
aI112
aI118
aI124
asS'eo'
p86
(lp87
I5
aI8
asS'en'
p88
(lp89
I10
aI11
aI11
aI29
aI39
aI45
aI51
aI57
aI63
aI66
aI67
aI68
aI69
aI69
aI70
aI71
aI72
aI73
aI74
aI75
aI75
aI76
aI77
aI78
aI79
aI80
aI81
aI81
aI82
aI83
aI84
aI85
aI86
aI87
aI87
aI88
aI89
aI90
aI91
aI92
aI93
aI93
aI94
aI95
aI99
aI105
aI111
aI117
aI123
asS'b '
p90
(lp91
I31
asS'ec'
p92
(lp93
I18
aI36
aI38
aI42
aI44
aI48
aI50
aI54
aI56
aI60
aI62
aI66
aI68
aI72
aI74
aI78
aI80
aI84
aI86
aI90
aI92
aI96
aI98
aI102
aI104
aI108
aI110
aI114
aI116
aI120
aI122
asS'eb'
p94
(lp95
I9
aI31
aI32
aI34
asS'ex'
p96
(lp97
I1
aI13
asS'ew'
p98
(lp99
I1
asS'es'
p100
(lp101
I20
aI21
aI22
aI24
asS'er'
p102
(lp103
I1
aI6
aI12
aI16
aI20
aI21
aI22
aI66
aI67
aI68
aI69
aI70
aI71
aI72
aI73
aI74
aI75
aI76
aI77
aI78
aI79
aI80
aI81
aI82
aI83
aI84
aI85
aI86
aI87
aI88
aI89
aI90
aI91
aI92
aI93
aI94
aI95
asS'rt'
p104
(lp105
I1
aI31
asS'ru'
p106
(lp107
I35
asS'rs'
p108
(lp109
I6
aI12
aI22
asS're'
p110
(lp111
I24
aI36
aI37
aI38
aI39
aI40
aI41
aI66
aI67
aI68
aI69
aI70
aI71
aI96
aI97
aI98
aI99
aI100
aI101
asS'rg'
p112
(lp113
I4
asS'xt'
p114
(lp115
I13
asS'rc'
p116
(lp117
I24
aI25
asS'ro'
p118
(lp119
I14
aI15
aI18
aI27
aI42
aI43
aI44
aI45
aI46
aI47
aI48
aI49
aI50
aI51
aI52
aI53
aI72
aI73
aI74
aI75
aI76
aI77
aI78
aI79
aI80
aI81
aI82
aI83
aI102
aI103
aI104
aI105
aI106
aI107
aI108
aI109
aI110
aI111
aI112
aI113
asS'ri'
p120
(lp121
I0
aI11
aI26
aI29
asS'rk'
p122
(lp123
I29
asS'we'
p124
(lp125
I20
aI21
aI22
aI31
aI32
aI34
asS'wa'
p126
(lp127
I36
aI37
aI38
aI39
aI40
aI41
aI66
aI67
aI68
aI69
aI70
aI71
aI96
aI97
aI98
aI99
aI100
aI101
asS'wo'
p128
(lp129
I29
asS'bo'
p130
(lp131
I9
aI28
asS'e '
p132
(lp133
I36
aI37
aI38
aI39
aI40
aI41
aI54
aI55
aI56
aI57
aI58
aI59
aI66
aI67
aI68
aI69
aI70
aI71
aI84
aI85
aI86
aI87
aI88
aI89
aI96
aI96
aI97
aI97
aI98
aI98
aI99
aI99
aI100
aI100
aI101
aI101
aI102
aI103
aI104
aI105
aI106
aI107
aI108
aI109
aI110
aI111
aI112
aI113
aI114
aI114
aI115
aI115
aI116
aI116
aI117
aI117
aI118
aI118
aI119
aI119
aI120
aI121
aI122
aI123
aI124
aI125
asS'wr'
p134
(lp135
I11
aI29
asS'bs'
p136
(lp137
I34
asS'je'
p138
(lp139
I18
asS'oo'
p140
(lp141
I27
aI28
asS'on'
p142
(lp143
I3
aI4
aI6
aI8
aI20
aI21
aI22
aI30
aI36
aI39
aI39
aI42
aI45
aI45
aI48
aI51
aI51
aI54
aI57
aI57
aI60
aI63
aI63
aI66
aI69
aI69
aI72
aI75
aI75
aI78
aI81
aI81
aI84
aI87
aI87
aI90
aI93
aI93
aI96
aI99
aI99
aI102
aI105
aI105
aI108
aI111
aI111
aI114
aI117
aI117
aI120
aI123
aI123
asS'om'
p144
(lp145
I2
aI8
aI9
aI16
aI30
aI37
aI43
aI49
aI55
aI61
aI67
aI73
aI79
aI85
aI91
aI97
aI103
aI109
aI115
aI121
asS'ok'
p146
(lp147
I28
asS'oj'
p148
(lp149
I18
asS'og'
p150
(lp151
I14
aI15
aI33
aI42
aI43
aI44
aI45
aI46
aI47
aI48
aI49
aI50
aI51
aI52
aI53
aI72
aI73
aI74
aI75
aI76
aI77
aI78
aI79
aI80
aI81
aI82
aI83
aI102
aI103
aI104
aI105
aI106
aI107
aI108
aI109
aI110
aI111
aI112
aI113
asS'of'
p152
(lp153
I36
aI37
aI38
aI39
aI40
aI41
aI66
aI67
aI68
aI69
aI70
aI71
aI96
aI97
aI98
aI99
aI100
aI101
asS'od'
p154
(lp155
I9
aI17
aI54
aI55
aI56
aI57
aI58
aI59
aI60
aI61
aI62
aI63
aI64
aI65
aI84
aI85
aI86
aI87
aI88
aI89
aI90
aI91
aI92
aI93
aI94
aI95
aI114
aI115
aI116
aI117
aI118
aI119
aI120
aI121
aI122
aI123
aI124
aI125
asS'oc'
p156
(lp157
I10
aI11
asS'r '
p158
(lp159
I16
asS'tw'
p160
(lp161
I36
aI37
aI38
aI39
aI40
aI41
aI66
aI67
aI68
aI69
aI70
aI71
aI96
aI97
aI98
aI99
aI100
aI101
asS'ou'
p162
(lp163
I24
aI25
asS'ot'
p164
(lp165
I27
asS'os'
p166
(lp167
I30
asS'or'
p168
(lp169
I0
aI4
aI26
aI29
aI35
asS'op'
p170
(lp171
I5
asS'ci'
p172
(lp173
I36
aI42
aI48
aI54
aI60
aI66
aI72
aI78
aI84
aI90
aI96
aI102
aI108
aI114
aI120
asS'co'
p174
(lp175
I2
aI16
aI17
aI30
aI39
aI45
aI51
aI54
aI55
aI56
aI57
aI57
aI58
aI59
aI60
aI61
aI62
aI63
aI63
aI64
aI65
aI69
aI75
aI81
aI84
aI85
aI86
aI87
aI87
aI88
aI89
aI90
aI91
aI92
aI93
aI93
aI94
aI95
aI99
aI105
aI111
aI114
aI115
aI116
aI117
aI117
aI118
aI119
aI120
aI121
aI122
aI123
aI123
aI124
aI125
asS'cl'
p176
(lp177
I31
asS'ca'
p178
(lp179
I36
aI42
aI48
aI54
aI60
aI66
aI72
aI78
aI84
aI90
aI96
aI102
aI108
aI114
aI120
asS'ce'
p180
(lp181
I24
aI25
asS'xp'
p182
(lp183
I1
asS'cu'
p184
(lp185
I10
aI11
asS'ct'
p186
(lp187
I18
asS'pr'
p188
(lp189
I14
aI15
aI18
aI42
aI43
aI44
aI45
aI46
aI47
aI48
aI49
aI50
aI51
aI52
aI53
aI72
aI73
aI74
aI75
aI76
aI77
aI78
aI79
aI80
aI81
aI82
aI83
aI102
aI103
aI104
aI105
aI106
aI107
aI108
aI109
aI110
aI111
aI112
aI113
asS'm '
p190
(lp191
I15
aI48
aI49
aI50
aI51
aI52
aI53
aI78
aI79
aI80
aI81
aI82
aI83
aI108
aI109
aI110
aI111
aI112
aI113
asS'pu'
p192
(lp193
I16
asS'pa'
p194
(lp195
I2
aI12
asS'pe'
p196
(lp197
I1
aI5
aI6
aI12
aI36
aI38
aI42
aI44
aI48
aI50
aI54
aI56
aI60
aI62
aI66
aI68
aI72
aI74
aI78
aI80
aI84
aI86
aI90
aI92
aI96
aI98
aI102
aI104
aI108
aI110
aI114
aI116
aI120
aI122
asS'po'
p198
(lp199
I30
asS'pl'
p200
(lp201
I5
asS'al'
p202
(lp203
I7
aI66
aI67
aI68
aI69
aI70
aI71
aI72
aI73
aI74
aI75
aI76
aI77
aI78
aI79
aI80
aI81
aI82
aI83
aI84
aI85
aI86
aI87
aI88
aI89
aI90
aI91
aI92
aI93
aI94
aI95
asS'ho'
p204
(lp205
I0
asS'iv'
p206
(lp207
I7
asS'me'
p208
(lp209
I8
aI9
aI10
aI11
asS'mm'
p210
(lp211
I14
aI42
aI43
aI44
aI45
aI46
aI47
aI72
aI73
aI74
aI75
aI76
aI77
aI102
aI103
aI104
aI105
aI106
aI107
asS'la'
p212
(lp213
I14
aI15
aI16
aI17
aI96
aI97
aI98
aI99
aI100
aI101
aI102
aI103
aI104
aI105
aI106
aI107
aI108
aI109
aI110
aI111
aI112
aI113
aI114
aI115
aI116
aI117
aI118
aI119
aI120
aI121
aI122
aI123
aI124
aI125
asS'mi'
p214
(lp215
I14
aI42
aI43
aI44
aI45
aI46
aI47
aI72
aI73
aI74
aI75
aI76
aI77
aI102
aI103
aI104
aI105
aI106
aI107
asS'ur'
p216
(lp217
I24
aI25
asS'um'
p218
(lp219
I10
aI11
aI35
asS'ui'
p220
(lp221
I40
aI46
aI52
aI58
aI64
aI70
aI76
aI82
aI88
aI94
aI100
aI106
aI112
aI118
aI124
asS'mp'
p222
(lp223
I2
aI16
aI30
asS'ue'
p224
(lp225
I20
aI21
aI22
asS'ta'
p226
(lp227
I19
asS'ua'
p228
(lp229
I7
aI14
aI15
aI16
aI17
aI96
aI97
aI98
aI99
aI100
aI101
aI102
aI103
aI104
aI105
aI106
aI107
aI108
aI109
aI110
aI111
aI112
aI113
aI114
aI115
aI116
aI117
aI118
aI119
aI120
aI121
aI122
aI123
aI124
aI125
asS'at'
p230
(lp231
I4
aI36
aI42
aI48
aI54
aI60
aI66
aI72
aI78
aI84
aI90
aI96
aI102
aI108
aI114
aI120
asS've'
p232
(lp233
I39
aI45
aI51
aI57
aI63
aI69
aI75
aI81
aI87
aI93
aI99
aI105
aI111
aI117
aI123
asS'ag'
p234
(lp235
I14
aI15
aI16
aI17
aI96
aI97
aI98
aI99
aI100
aI101
aI102
aI103
aI104
aI105
aI106
aI107
aI108
aI109
aI110
aI111
aI112
aI113
aI114
aI115
aI116
aI117
aI118
aI119
aI120
aI121
aI122
aI123
aI124
aI125
asS'vi'
p236
(lp237
I1
aI7
asS'is'
p238
(lp239
I4
asS'am'
p240
(lp241
I14
aI15
aI42
aI43
aI44
aI45
aI46
aI47
aI48
aI49
aI50
aI51
aI52
aI53
aI72
aI73
aI74
aI75
aI76
aI77
aI78
aI79
aI80
aI81
aI82
aI83
aI102
aI103
aI104
aI105
aI106
aI107
aI108
aI109
aI110
aI111
aI112
aI113
asS'it'
p242
(lp243
I0
aI3
aI11
aI29
aI30
aI34
asS'an'
p244
(lp245
I2
aI4
aI14
aI15
aI16
aI17
aI20
aI21
aI21
aI22
aI22
aI96
aI97
aI98
aI99
aI100
aI101
aI102
aI103
aI104
aI105
aI106
aI107
aI108
aI109
aI110
aI111
aI112
aI113
aI114
aI115
aI116
aI117
aI118
aI119
aI120
aI121
aI122
aI123
aI124
aI125
asS'ap'
p246
(lp247
I12
asS'as'
p248
(lp249
I19
asS'ar'
p250
(lp251
I31
aI36
aI37
aI38
aI39
aI40
aI41
aI66
aI67
aI68
aI69
aI70
aI71
aI96
aI97
aI98
aI99
aI100
aI101
asS'au'
p252
(lp253
I0
asS'il'
p254
(lp255
I13
asS'io'
p256
(lp257
I3
aI4
aI20
aI21
aI22
aI30
aI36
aI37
aI39
aI42
aI43
aI45
aI48
aI49
aI51
aI54
aI55
aI57
aI60
aI61
aI63
aI66
aI67
aI69
aI72
aI73
aI75
aI78
aI79
aI81
aI84
aI85
aI87
aI90
aI91
aI93
aI96
aI97
aI99
aI102
aI103
aI105
aI108
aI109
aI111
aI114
aI115
aI117
aI120
aI121
aI123
asS'in'
p258
(lp259
I3
aI7
aI14
aI17
aI26
aI40
aI42
aI43
aI44
aI45
aI46
aI46
aI47
aI52
aI58
aI60
aI61
aI62
aI63
aI64
aI64
aI65
aI70
aI72
aI73
aI74
aI75
aI76
aI76
aI77
aI82
aI88
aI90
aI91
aI92
aI93
aI94
aI94
aI95
aI100
aI102
aI103
aI104
aI105
aI106
aI106
aI107
aI112
aI118
aI120
aI121
aI122
aI123
aI124
aI124
aI125
asS'ic'
p260
(lp261
I31
aI36
aI42
aI48
aI54
aI60
aI66
aI72
aI78
aI84
aI90
aI96
aI102
aI108
aI114
aI120
asS'ie'
p262
(lp263
I1
asS'id'
p264
(lp265
I7
aI37
aI40
aI43
aI46
aI49
aI52
aI55
aI58
aI61
aI64
aI67
aI70
aI73
aI76
aI79
aI82
aI85
aI88
aI91
aI94
aI97
aI100
aI103
aI106
aI109
aI112
aI115
aI118
aI121
aI124
asS'ig'
p266
(lp267
I26
asS'if'
p268
(lp269
I36
aI42
aI48
aI54
aI60
aI66
aI72
aI78
aI84
aI90
aI96
aI102
aI108
aI114
aI120
asS'ni'
p270
(lp271
I4
asS'nd'
p272
(lp273
I7
aI21
aI22
asS'ne'
p274
(lp275
I8
aI40
aI46
aI52
aI58
aI64
aI66
aI67
aI68
aI69
aI70
aI70
aI71
aI72
aI73
aI74
aI75
aI76
aI76
aI77
aI78
aI79
aI80
aI81
aI82
aI82
aI83
aI84
aI85
aI86
aI87
aI88
aI88
aI89
aI90
aI91
aI92
aI93
aI94
aI94
aI95
aI100
aI106
aI112
aI118
aI124
asS'ng'
p276
(lp277
I14
aI14
aI15
aI16
aI17
aI17
aI42
aI43
aI44
aI45
aI46
aI47
aI60
aI61
aI62
aI63
aI64
aI65
aI72
aI73
aI74
aI75
aI76
aI77
aI90
aI91
aI92
aI93
aI94
aI95
aI96
aI97
aI98
aI99
aI100
aI101
aI102
aI102
aI103
aI103
aI104
aI104
aI105
aI105
aI106
aI106
aI107
aI107
aI108
aI109
aI110
aI111
aI112
aI113
aI114
aI115
aI116
aI117
aI118
aI119
aI120
aI120
aI121
aI121
aI122
aI122
aI123
aI123
aI124
aI124
aI125
aI125
asS'ny'
p278
(lp279
I2
asS'ns'
p280
(lp281
I3
aI20
aI21
aI22
aI22
asS'nt'
p282
(lp283
I10
aI11
aI39
aI45
aI51
aI57
aI63
aI69
aI75
aI81
aI87
aI93
aI99
aI105
aI111
aI117
aI123
asS'nv'
p284
(lp285
I39
aI45
aI51
aI57
aI63
aI69
aI75
aI81
aI87
aI93
aI99
aI105
aI111
aI117
aI123
asS'ft'
p286
(lp287
I36
aI37
aI38
aI39
aI40
aI41
aI66
aI67
aI68
aI69
aI70
aI71
aI96
aI97
aI98
aI99
aI100
aI101
asS'fi'
p288
(lp289
I13
aI36
aI42
aI48
aI54
aI60
aI66
aI72
aI78
aI84
aI90
aI96
aI102
aI108
aI114
aI120
asS'fo'
p290
(lp291
I35
asS'n '
p292
(lp293
I11
aI20
aI21
aI29
asS'sp'
p294
(lp295
I36
aI38
aI42
aI44
aI48
aI50
aI54
aI56
aI60
aI62
aI66
aI68
aI72
aI74
aI78
aI80
aI84
aI86
aI90
aI92
aI96
aI98
aI102
aI104
aI108
aI110
aI114
aI116
aI120
aI122
asS'sw'
p296
(lp297
I20
aI21
aI22
asS'st'
p298
(lp299
I3
aI20
aI21
aI22
aI41
aI47
aI53
aI59
aI65
aI71
aI77
aI83
aI89
aI95
aI101
aI107
aI113
aI119
aI125
asS'sk'
p300
(lp301
I19
asS'si'
p302
(lp303
I30
aI34
asS'so'
p304
(lp305
I6
aI8
aI9
aI24
aI25
aI36
aI37
aI38
aI39
aI40
aI41
aI66
aI67
aI68
aI69
aI70
aI71
aI96
aI97
aI98
aI99
aI100
aI101
asS'sa'
p306
(lp307
I4
as.