(dp1
S' c'
p2
(lp3
I18
aI31
aI32
aI43
asS'gu'
p4
(lp5
I22
aI36
asS' f'
p6
(lp7
I30
aI38
asS' g'
p8
(lp9
I22
aI36
asS' d'
p10
(lp11
I41
asS' e'
p12
(lp13
I8
aI9
aI26
aI27
aI28
asS' i'
p14
(lp15
I21
aI35
aI42
asS' n'
p16
(lp17
I18
aI19
aI20
aI21
aI22
aI23
aI32
aI33
aI34
aI35
aI36
aI37
asS' o'
p18
(lp19
I1
asS'd '
p20
(lp21
I1
asS' m'
p22
(lp23
I40
asS' r'
p24
(lp25
I20
aI34
asS' s'
p26
(lp27
I17
aI23
aI37
aI39
asS'ge'
p28
(lp29
I18
aI19
aI20
aI21
aI22
aI23
aI27
aI40
asS'gi'
p30
(lp31
I8
asS'gr'
p32
(lp33
I47
asS'le'
p34
(lp35
I6
aI20
aI23
aI25
aI27
aI30
aI34
aI37
aI38
asS'la'
p36
(lp37
I0
aI1
aI41
asS'lo'
p38
(lp39
I3
aI8
asS'tt'
p40
(lp41
I19
aI33
asS'cl'
p42
(lp43
I38
aI39
aI40
aI41
aI41
aI42
aI43
asS'tr'
p44
(lp45
I42
asS'ts'
p46
(lp47
I5
aI10
aI16
aI24
aI29
aI39
aI49
aI50
asS'li'
p48
(lp49
I22
aI36
asS'lu'
p50
(lp51
I38
aI39
aI40
aI41
aI42
aI43
asS'th'
p52
(lp53
I9
asS'ti'
p54
(lp55
I2
aI4
aI9
aI14
aI15
aI18
aI32
aI41
aI42
aI44
aI45
aI46
asS'te'
p56
(lp57
I4
aI5
aI12
aI16
aI17
aI19
aI29
aI33
aI39
aI49
aI50
asS'ta'
p58
(lp59
I5
aI16
aI24
aI29
aI39
aI49
aI50
asS'yi'
p60
(lp61
I28
asS'ym'
p62
(lp63
I7
asS'yl'
p64
(lp65
I23
aI37
asS'yo'
p66
(lp67
I0
asS'di'
p68
(lp69
I14
aI15
aI21
aI35
asS'de'
p70
(lp71
I22
aI31
aI36
aI38
aI39
aI40
aI41
aI41
aI42
aI43
asS'g '
p72
(lp73
I18
aI19
aI20
aI21
aI22
aI23
aI28
aI32
aI33
aI34
aI35
aI36
aI37
asS'du'
p74
(lp75
I48
asS's '
p76
(lp77
I27
asS'l '
p78
(lp79
I8
aI9
aI18
aI19
aI20
aI21
aI22
aI23
asS' p'
p80
(lp81
I19
aI33
asS't '
p82
(lp83
I26
asS'em'
p84
(lp85
I5
aI9
aI11
aI16
aI29
aI39
aI49
aI50
asS'el'
p86
(lp87
I22
aI27
aI36
asS'en'
p88
(lp89
I5
aI10
aI16
aI18
aI18
aI19
aI20
aI21
aI22
aI23
aI29
aI32
aI39
aI49
aI50
asS'ed'
p90
(lp91
I48
asS'ec'
p92
(lp93
I32
aI33
aI34
aI35
aI36
aI37
aI41
asS'ex'
p94
(lp95
I8
aI9
aI26
aI27
aI28
asS'ew'
p96
(lp97
I13
asS'ev'
p98
(lp99
I13
asS'es'
p100
(lp101
I8
aI9
aI26
aI27
aI27
aI28
aI38
aI40
asS'er'
p102
(lp103
I4
aI18
aI19
aI19
aI20
aI21
aI22
aI23
aI33
asS'ru'
p104
(lp105
I20
aI34
aI42
asS'ry'
p106
(lp107
I28
asS're'
p108
(lp109
I8
aI9
aI11
aI13
aI26
aI27
aI28
aI48
asS'ra'
p110
(lp111
I4
aI18
aI19
aI20
aI21
aI22
aI23
aI41
aI47
asS'rc'
p112
(lp113
I30
aI31
asS'rn'
p114
(lp115
I19
aI33
asS'ro'
p116
(lp117
I45
aI46
aI47
aI48
asS'ri'
p118
(lp119
I6
aI25
aI26
asS'rk'
p120
(lp121
I11
asS'bl'
p122
(lp123
I6
aI25
asS'bo'
p124
(lp125
I7
asS'e '
p126
(lp127
I17
aI30
aI31
aI38
aI39
aI40
aI41
aI42
aI43
asS'wh'
p128
(lp129
I17
asS'bp'
p130
(lp131
I47
asS'br'
p132
(lp133
I46
asS'oo'
p134
(lp135
I3
asS'on'
p136
(lp137
I2
aI4
aI8
aI9
aI14
aI14
aI15
aI15
aI18
aI18
aI24
aI26
aI27
aI28
aI32
aI32
aI41
aI42
aI44
asS'om'
p138
(lp139
I2
aI10
aI21
aI35
aI43
asS'ol'
p140
(lp141
I7
asS'og'
p142
(lp143
I8
aI47
asS'ty'
p144
(lp145
I23
aI37
asS'oc'
p146
(lp147
I48
asS'ou'
p148
(lp149
I0
aI1
aI30
aI31
aI45
aI46
asS'ot'
p150
(lp151
I12
asS'os'
p152
(lp153
I2
asS'op'
p154
(lp155
I3
asS'ci'
p156
(lp157
I32
aI33
aI34
aI35
aI36
aI37
asS'ch'
p158
(lp159
I27
asS'co'
p160
(lp161
I2
aI10
aI14
aI15
aI18
aI24
aI31
aI32
aI43
asS'od'
p162
(lp163
I31
asS'ca'
p164
(lp165
I8
aI9
asS'ce'
p166
(lp167
I17
aI30
aI31
aI48
asS'xp'
p168
(lp169
I8
aI9
aI26
aI27
aI28
asS'ct'
p170
(lp171
I42
aI44
asS'pr'
p172
(lp173
I8
aI9
aI26
aI27
aI28
aI47
aI48
asS'ps'
p174
(lp175
I3
asS'pa'
p176
(lp177
I17
aI19
aI33
asS'pe'
p178
(lp179
I32
aI33
aI34
aI35
aI36
aI37
asS'po'
p180
(lp181
I2
asS'c '
p182
(lp183
I32
aI33
aI34
aI35
aI36
aI37
asS'al'
p184
(lp185
I8
aI9
aI14
aI18
aI19
aI20
aI21
aI22
aI23
asS'hi'
p186
(lp187
I17
asS'ha'
p188
(lp189
I27
asS'he'
p190
(lp191
I9
asS'me'
p192
(lp193
I5
aI10
aI16
aI29
aI39
aI40
aI49
aI50
asS'ma'
p194
(lp195
I9
aI9
aI11
aI43
asS'mb'
p196
(lp197
I7
asS'mm'
p198
(lp199
I10
aI43
asS'ut'
p200
(lp201
I0
aI1
aI45
aI46
asS'mi'
p202
(lp203
I18
aI19
aI20
aI21
aI22
aI23
aI32
aI33
aI34
aI35
aI36
aI37
asS'ur'
p204
(lp205
I30
aI31
aI48
asS'ul'
p206
(lp207
I20
aI34
asS'un'
p208
(lp209
I28
aI44
asS'ui'
p210
(lp211
I22
aI36
asS'mp'
p212
(lp213
I2
asS'ud'
p214
(lp215
I38
aI39
aI40
aI41
aI42
aI43
asS'uc'
p216
(lp217
I42
asS'il'
p218
(lp219
I30
aI38
asS'va'
p220
(lp221
I6
aI25
aI26
aI28
asS'ac'
p222
(lp223
I17
asS'ab'
p224
(lp225
I6
aI25
asS've'
p226
(lp227
I18
aI32
asS'ag'
p228
(lp229
I40
asS'ai'
p230
(lp231
I1
asS'vi'
p232
(lp233
I13
asS'am'
p234
(lp235
I18
aI19
aI20
aI21
aI22
aI23
aI32
aI33
aI34
aI35
aI36
aI37
aI47
asS'it'
p236
(lp237
I2
aI4
aI14
aI15
aI17
asS'an'
p238
(lp239
I24
aI26
aI27
aI43
asS'ay'
p240
(lp241
I0
asS'ar'
p242
(lp243
I6
aI11
aI25
aI26
aI28
aI41
asS'at'
p244
(lp245
I4
aI5
aI9
aI9
aI16
aI19
aI29
aI33
aI39
aI41
aI49
aI50
asS'io'
p246
(lp247
I2
aI4
aI8
aI9
aI14
aI15
aI18
aI21
aI26
aI27
aI28
aI32
aI35
aI41
aI42
aI44
asS'in'
p248
(lp249
I18
aI19
aI20
aI21
aI22
aI22
aI23
aI25
aI26
aI28
aI32
aI33
aI34
aI35
aI36
aI36
aI37
aI38
aI39
aI40
aI41
aI42
aI42
aI43
aI45
aI46
asS'ia'
p250
(lp251
I6
aI25
aI26
asS'ic'
p252
(lp253
I8
aI9
aI32
aI33
aI34
aI35
aI36
aI37
asS'ie'
p254
(lp255
I13
asS'id'
p256
(lp257
I1
aI21
aI22
aI35
aI36
asS'if'
p258
(lp259
I32
aI33
aI34
aI35
aI36
aI37
asS'ub'
p260
(lp261
I46
aI47
asS'no'
p262
(lp263
I12
asS'na'
p264
(lp265
I14
aI18
aI19
aI20
aI21
aI22
aI23
aI32
aI33
aI34
aI35
aI36
aI37
asS'nc'
p266
(lp267
I38
aI39
aI40
aI41
aI42
aI43
aI44
asS'nd'
p268
(lp269
I14
aI15
aI43
asS'ne'
p270
(lp271
I18
aI19
aI20
aI21
aI22
aI22
aI23
aI36
aI45
aI46
asS'ng'
p272
(lp273
I18
aI19
aI20
aI21
aI22
aI23
aI27
aI28
aI32
aI33
aI34
aI35
aI36
aI37
asS'ns'
p274
(lp275
I24
aI42
aI44
asS'nt'
p276
(lp277
I5
aI10
aI16
aI18
aI24
aI26
aI29
aI32
aI39
aI49
aI50
asS'nv'
p278
(lp279
I18
aI25
aI26
aI28
aI32
asS'fu'
p280
(lp281
I44
asS'fi'
p282
(lp283
I30
aI32
aI33
aI34
aI35
aI36
aI37
aI38
asS'sy'
p284
(lp285
I7
asS'ss'
p286
(lp287
I8
aI9
aI26
aI27
aI27
aI28
aI40
asS'sp'
p288
(lp289
I17
aI32
aI33
aI34
aI35
aI36
aI37
asS'su'
p290
(lp291
I46
aI47
asS'st'
p292
(lp293
I5
aI16
aI23
aI24
aI29
aI37
aI39
aI42
aI49
aI50
asS'si'
p294
(lp295
I2
aI8
aI9
aI26
aI27
aI28
asS'so'
p296
(lp297
I30
aI31
asS'sa'
p298
(lp299
I40
as.