(dp1
S' b'
p2
(lp3
I84
aI86
asS' c'
p4
(lp5
I104
aI105
aI106
aI114
aI115
aI116
aI148
aI150
aI151
aI152
aI153
aI153
aI154
aI177
asS'gu'
p6
(lp7
I6
aI7
asS' a'
p8
(lp9
I15
aI29
asS' f'
p10
(lp11
I32
aI34
asS'gr'
p12
(lp13
I7
aI189
asS' d'
p14
(lp15
I118
aI134
aI156
aI176
asS' e'
p16
(lp17
I101
aI102
aI103
aI104
aI105
aI106
aI111
aI112
aI113
aI114
aI115
aI116
aI117
aI145
aI146
aI150
aI151
aI155
aI175
asS'y '
p18
(lp19
I144
asS' i'
p20
(lp21
I42
aI43
aI144
aI147
aI149
aI152
aI154
aI173
asS' o'
p22
(lp23
I1
aI8
aI14
aI19
aI20
aI22
aI27
aI38
aI41
aI48
aI49
aI50
aI64
aI65
aI66
aI67
aI68
aI82
aI83
aI85
aI87
aI88
aI89
aI90
aI91
aI93
aI96
aI97
aI99
aI100
aI164
aI165
asS' l'
p24
(lp25
I7
asS' m'
p26
(lp27
I37
asS'gg'
p28
(lp29
I25
aI28
aI29
asS' s'
p30
(lp31
I29
aI92
aI93
aI144
aI173
asS'ge'
p32
(lp33
I6
aI7
aI25
aI28
aI29
aI75
aI85
aI102
aI105
aI108
aI112
aI115
aI121
aI141
aI162
asS' t'
p34
(lp35
I2
aI4
aI135
aI174
asS' u'
p36
(lp37
I134
aI135
aI193
aI194
aI195
asS'go'
p38
(lp39
I146
aI147
aI148
aI149
aI151
aI152
aI153
aI154
aI156
aI191
asS'l_'
p40
(lp41
I195
asS'gm'
p42
(lp43
I120
asS'ld'
p44
(lp45
I17
aI20
aI21
aI144
aI173
asS'le'
p46
(lp47
I75
aI85
aI101
aI102
aI103
aI104
aI105
aI106
aI111
aI112
aI113
aI114
aI115
aI116
aI124
aI129
aI145
aI146
aI150
aI151
aI162
aI167
aI169
aI175
aI176
aI177
aI178
asS'la'
p48
(lp49
I6
aI7
aI117
aI134
aI135
aI139
aI155
aI168
aI175
aI190
asS'lo'
p50
(lp51
I37
aI194
aI195
asS'll'
p52
(lp53
I37
aI130
aI149
aI154
aI162
asS'tr'
p54
(lp55
I0
aI1
aI2
aI10
aI130
aI149
aI154
aI172
asS'_r'
p56
(lp57
I194
aI195
asS'li'
p58
(lp59
I81
aI91
asS'lv'
p60
(lp61
I57
asS'to'
p62
(lp63
I0
aI1
aI2
aI4
aI12
aI14
aI39
aI41
aI159
aI174
aI194
aI195
asS'lt'
p64
(lp65
I55
asS'lu'
p66
(lp67
I54
aI56
aI130
aI149
aI154
asS'av'
p68
(lp69
I143
asS'th'
p70
(lp71
I95
aI97
aI160
aI165
asS'ti'
p72
(lp73
I3
aI29
aI39
aI40
aI41
aI42
aI44
aI54
aI56
aI59
aI64
aI73
aI77
aI81
aI83
aI87
aI91
aI92
aI93
aI103
aI106
aI113
aI116
aI117
aI118
aI124
aI125
aI127
aI130
aI132
aI133
aI135
aI149
aI154
aI155
aI156
aI157
aI167
aI168
aI171
aI172
aI175
aI176
aI178
asS'te'
p74
(lp75
I2
aI4
aI8
aI9
aI13
aI25
aI42
aI74
aI84
aI86
aI94
aI96
aI134
aI134
aI135
aI137
aI166
aI191
asS'tc'
p76
(lp77
I109
asS'ta'
p78
(lp79
I16
aI18
aI19
aI22
aI23
aI73
aI78
aI83
aI88
aI102
aI105
aI108
aI112
aI115
aI131
aI132
aI141
aI147
aI152
aI161
aI166
asS'do'
p80
(lp81
I100
aI193
aI194
aI195
asS'ty'
p82
(lp83
I161
aI184
aI188
asS'di'
p84
(lp85
I3
aI76
aI86
aI102
aI105
aI108
aI112
aI115
aI166
aI171
aI179
aI183
asS'dg'
p86
(lp87
I75
aI85
aI120
aI121
asS'de'
p88
(lp89
I3
aI4
aI17
aI20
aI46
aI47
aI49
aI50
aI104
aI105
aI106
aI110
aI114
aI115
aI116
aI118
aI119
aI137
aI150
aI151
aI152
aI153
aI154
aI156
aI176
aI180
asS'da'
p90
(lp91
I134
aI134
aI135
asS'd '
p92
(lp93
I84
aI86
aI101
aI104
aI118
aI134
aI135
aI144
aI146
aI147
aI148
aI149
aI151
aI152
aI153
aI154
aI156
aI173
asS'g '
p94
(lp95
I7
aI34
asS'dv'
p96
(lp97
I29
aI102
aI105
aI108
aI112
aI115
aI141
asS'yp'
p98
(lp99
I184
asS's '
p100
(lp101
I102
aI105
aI111
aI112
aI114
aI115
aI117
aI145
aI150
aI155
asS'qu'
p102
(lp103
I59
aI60
aI61
aI62
aI64
aI65
aI66
aI67
aI70
aI71
aI78
aI88
aI157
asS'l '
p104
(lp105
I15
asS'rs'
p106
(lp107
I195
asS't '
p108
(lp109
I32
aI49
aI85
aI100
aI134
aI135
aI193
aI194
aI195
asS'em'
p110
(lp111
I36
aI37
aI38
aI75
aI85
aI121
aI160
asS'el'
p112
(lp113
I37
aI124
aI139
asS'eo'
p114
(lp115
I102
aI105
aI112
aI115
asS'en'
p116
(lp117
I12
aI14
aI46
aI49
aI57
aI61
aI66
aI71
aI72
aI75
aI77
aI82
aI85
aI87
aI100
aI120
aI121
aI132
aI137
aI142
aI162
aI193
aI194
aI195
asS'b '
p118
(lp119
I92
aI93
asS'ga'
p120
(lp121
I103
aI106
aI113
aI116
asS'w '
p122
(lp123
I37
aI164
aI173
aI174
asS'ed'
p124
(lp125
I3
aI75
aI76
aI84
aI85
aI86
aI86
aI134
aI135
aI166
asS'eg'
p126
(lp127
I103
aI106
aI113
aI116
aI191
asS'ef'
p128
(lp129
I72
aI82
aI110
aI138
aI142
aI176
asS'ea'
p130
(lp131
I13
aI179
aI180
aI181
aI183
asS'ec'
p132
(lp133
I92
aI93
aI110
aI119
aI124
aI133
aI158
aI171
aI192
asS'ct'
p134
(lp135
I110
aI124
aI133
aI158
aI171
aI172
asS'ex'
p136
(lp137
I101
aI102
aI103
aI104
aI105
aI106
aI111
aI112
aI113
aI114
aI115
aI116
aI117
aI127
aI129
aI145
aI146
aI150
aI151
aI155
aI168
aI175
asS'et'
p138
(lp139
I188
asS'ew'
p140
(lp141
I164
asS'ev'
p142
(lp143
I4
asS'ep'
p144
(lp145
I52
aI127
aI132
aI170
aI177
asS'es'
p146
(lp147
I10
aI11
aI15
aI25
aI28
aI29
aI46
aI47
aI49
aI50
aI53
aI55
aI56
aI59
aI64
aI118
aI132
aI156
aI157
aI192
aI194
aI195
asS'er'
p148
(lp149
I5
aI8
aI9
aI16
aI17
aI18
aI19
aI20
aI22
aI24
aI25
aI27
aI36
aI37
aI38
aI45
aI45
aI47
aI48
aI48
aI50
aI51
aI59
aI60
aI61
aI62
aI62
aI63
aI64
aI65
aI66
aI67
aI67
aI68
aI72
aI82
aI94
aI96
aI138
aI161
aI164
aI165
aI180
aI195
asS'rt'
p150
(lp151
I39
aI40
aI41
aI42
aI44
aI109
aI161
aI186
asS'ru'
p152
(lp153
I169
aI172
aI175
aI176
aI177
asS'rw'
p154
(lp155
I32
aI34
asS'ul'
p156
(lp157
I55
aI144
aI169
aI173
aI175
aI176
aI177
asS'ha'
p158
(lp159
I162
asS'ry'
p160
(lp161
I191
asS'rd'
p162
(lp163
I32
aI34
asS're'
p164
(lp165
I13
aI45
aI46
aI47
aI48
aI49
aI50
aI52
aI53
aI55
aI56
aI60
aI61
aI65
aI66
aI70
aI71
aI72
aI72
aI76
aI82
aI82
aI86
aI132
aI132
aI138
aI171
aI194
aI195
asS'e_'
p166
(lp167
I194
aI195
asS'ra'
p168
(lp169
I7
aI33
aI130
aI149
aI154
aI167
asS'rc'
p170
(lp171
I80
aI90
aI98
aI99
aI194
aI195
asS'rl'
p172
(lp173
I193
asS'rm'
p174
(lp175
I187
aI194
asS'ro'
p176
(lp177
I7
aI10
aI11
aI15
aI24
aI26
aI27
aI30
aI31
aI140
aI145
aI150
aI155
aI189
asS'ri'
p178
(lp179
I0
aI1
aI2
aI5
aI34
aI62
aI67
aI94
aI96
aI118
aI156
aI188
asS'be'
p180
(lp181
I5
aI36
aI37
aI38
aI139
aI142
asS'we'
p182
(lp183
I45
aI48
aI51
asS'bo'
p184
(lp185
I79
aI89
asS'ba'
p186
(lp187
I101
aI104
aI118
asS'wa'
p188
(lp189
I32
aI34
asS'bl'
p190
(lp191
I81
aI91
asS'ju'
p192
(lp193
I120
aI121
asS'wl'
p194
(lp195
I75
aI85
asS'bh'
p196
(lp197
I183
asS'e '
p198
(lp199
I2
aI4
aI29
aI42
aI82
aI90
aI99
aI103
aI104
aI105
aI106
aI106
aI113
aI114
aI115
aI116
aI116
aI150
aI151
aI152
aI153
aI154
aI175
aI176
aI177
asS'bj'
p200
(lp201
I133
aI158
asS'wh'
p202
(lp203
I144
asS'bu'
p204
(lp205
I0
aI1
aI2
asS'jo'
p206
(lp207
I43
asS'wr'
p208
(lp209
I94
aI96
asS'br'
p210
(lp211
I34
asS'bs'
p212
(lp213
I5
asS'je'
p214
(lp215
I133
aI158
asS'by'
p216
(lp217
I84
aI86
asS'oo'
p218
(lp219
I79
aI89
aI146
aI147
aI148
aI149
aI151
aI152
aI153
aI154
aI156
asS'on'
p220
(lp221
I0
aI1
aI2
aI3
aI11
aI15
aI29
aI46
aI47
aI49
aI50
aI53
aI54
aI56
aI59
aI64
aI73
aI77
aI78
aI81
aI83
aI87
aI88
aI91
aI92
aI93
aI107
aI111
aI114
aI117
aI117
aI118
aI119
aI124
aI125
aI127
aI128
aI130
aI133
aI149
aI154
aI155
aI156
aI157
aI167
aI168
aI170
aI171
aI172
aI175
aI176
aI177
asS'om'
p222
(lp223
I109
aI128
asS'ol'
p224
(lp225
I17
aI20
aI21
aI54
aI56
aI57
asS'ok'
p226
(lp227
I79
aI89
asS'oi'
p228
(lp229
I43
aI123
asS'og'
p230
(lp231
I7
asS'of'
p232
(lp233
I1
aI8
aI11
aI14
aI15
aI19
aI20
aI22
aI27
aI38
aI41
aI48
aI49
aI50
aI64
aI65
aI66
aI67
aI68
aI82
aI83
aI85
aI87
aI88
aI89
aI90
aI91
aI93
aI96
aI97
aI99
aI100
asS'od'
p234
(lp235
I104
aI105
aI106
aI114
aI115
aI116
aI146
aI147
aI148
aI149
aI150
aI151
aI151
aI152
aI152
aI153
aI153
aI154
aI154
aI156
asS'oc'
p236
(lp237
I100
aI193
aI194
aI194
aI195
aI195
asS'ob'
p238
(lp239
I133
asS'r '
p240
(lp241
I1
aI8
aI14
aI19
aI20
aI22
aI27
aI38
aI41
aI48
aI50
aI64
aI65
aI66
aI67
aI68
aI96
aI97
asS'iv'
p242
(lp243
I103
aI106
aI113
aI116
aI132
aI195
asS'ow'
p244
(lp245
I37
aI75
aI85
aI173
aI174
asS'ov'
p246
(lp247
I164
aI165
asS'ou'
p248
(lp249
I80
aI90
aI98
aI99
aI102
aI105
aI112
aI115
aI143
aI144
aI173
aI189
aI194
aI195
asS'ot'
p250
(lp251
I4
aI78
aI88
aI137
asS'os'
p252
(lp253
I24
aI26
aI27
aI30
aI31
aI35
aI140
aI145
aI150
aI155
asS'or'
p254
(lp255
I0
aI1
aI12
aI14
aI32
aI34
aI39
aI41
aI95
aI97
aI109
aI186
aI187
aI191
aI194
aI194
aI195
asS'op'
p256
(lp257
I24
aI26
aI27
aI30
aI31
aI125
aI159
asS'ck'
p258
(lp259
I75
aI85
aI126
asS'ci'
p260
(lp261
I39
aI40
aI41
aI42
aI44
aI73
aI74
aI83
aI84
aI92
aI93
aI119
aI192
asS'ch'
p262
(lp263
I123
aI162
aI164
asS'co'
p264
(lp265
I0
aI1
aI2
aI104
aI105
aI106
aI107
aI109
aI111
aI114
aI114
aI115
aI116
aI117
aI150
aI151
aI152
aI153
aI154
aI170
aI177
asS'cl'
p266
(lp267
I190
asS'xc'
p268
(lp269
I127
asS'ca'
p270
(lp271
I3
aI81
aI91
aI92
aI93
aI148
aI153
aI191
aI194
aI195
asS'xa'
p272
(lp273
I101
aI102
aI103
aI104
aI105
aI106
aI111
aI112
aI113
aI114
aI115
aI116
aI129
aI145
aI146
aI150
aI151
asS'ce'
p274
(lp275
I29
aI72
aI80
aI82
aI90
aI98
aI99
aI123
aI127
aI131
aI147
aI152
aI161
aI170
aI177
aI194
aI195
asS'cr'
p276
(lp277
I5
aI13
aI76
aI86
aI118
aI156
asS'xp'
p278
(lp279
I117
aI155
aI168
aI175
asS'cu'
p280
(lp281
I100
aI193
aI194
aI195
asS'ad'
p282
(lp283
I29
aI101
aI102
aI104
aI105
aI108
aI112
aI115
aI118
aI141
aI179
aI180
aI181
aI183
asS'pr'
p284
(lp285
I7
aI11
aI15
aI24
aI26
aI27
aI30
aI31
aI132
aI140
aI145
aI150
aI155
asS'pt'
p286
(lp287
I118
aI125
aI127
aI156
aI170
aI177
asS'pu'
p288
(lp289
I32
aI81
aI91
asS'tl'
p290
(lp291
I178
asS'pa'
p292
(lp293
I39
aI39
aI40
aI40
aI41
aI41
aI42
aI42
aI44
aI44
asS'pd'
p294
(lp295
I134
aI135
asS'pe'
p296
(lp297
I92
aI93
aI184
aI192
asS'ph'
p298
(lp299
I17
aI20
aI21
asS'pi'
p300
(lp301
I126
aI159
asS'po'
p302
(lp303
I24
aI26
aI27
aI30
aI31
aI35
aI46
aI47
aI49
aI50
aI53
asS'pl'
p304
(lp305
I52
aI101
aI102
aI103
aI104
aI105
aI106
aI111
aI112
aI113
aI114
aI115
aI116
aI117
aI129
aI145
aI146
aI150
aI151
aI155
aI168
aI175
asS'hy'
p306
(lp307
I144
asS'it'
p308
(lp309
I73
aI74
aI76
aI83
aI84
aI86
aI94
aI96
aI142
aI166
aI176
aI178
asS'hi'
p310
(lp311
I165
asS'ho'
p312
(lp313
I17
aI20
aI21
aI95
aI97
aI109
aI123
aI144
aI173
aI173
aI174
asS'm_'
p314
(lp315
I194
asS'an'
p316
(lp317
I6
aI7
aI29
aI40
aI44
aI45
aI48
aI51
aI102
aI105
aI108
aI112
aI115
aI117
aI131
aI141
aI147
aI152
aI155
aI168
aI175
asS'he'
p318
(lp319
I160
aI164
aI179
aI180
aI181
aI183
asS'me'
p320
(lp321
I36
aI37
aI38
aI75
aI77
aI85
aI87
aI100
aI120
aI121
aI135
aI136
aI160
aI166
aI182
aI193
aI194
aI195
asS'ma'
p322
(lp323
I8
aI9
aI10
aI16
aI19
asS'mb'
p324
(lp325
I36
aI37
aI38
asS'mm'
p326
(lp327
I7
asS'ut'
p328
(lp329
I0
aI1
aI2
aI32
aI54
aI56
aI95
aI97
asS'mi'
p330
(lp331
I7
aI109
aI122
aI128
asS'up'
p332
(lp333
I17
aI20
aI21
aI134
aI135
aI189
asS'us'
p334
(lp335
I18
aI22
aI23
aI102
aI105
aI112
aI115
aI130
aI149
aI154
asS'ur'
p336
(lp337
I80
aI90
aI98
aI99
aI143
aI193
aI194
aI195
asS'um'
p338
(lp339
I100
aI193
aI194
aI195
asS'n '
p340
(lp341
I43
aI83
aI87
aI88
aI91
aI93
asS'uo'
p342
(lp343
I78
aI88
asS'un'
p344
(lp345
I161
aI194
aI195
asS'ui'
p346
(lp347
I60
aI61
aI65
aI66
aI70
aI71
asS'mp'
p348
(lp349
I101
aI102
aI103
aI104
aI105
aI106
aI111
aI112
aI113
aI114
aI115
aI116
aI129
aI145
aI146
aI150
aI151
asS'_l'
p350
(lp351
I194
aI195
asS'ue'
p352
(lp353
I59
aI62
aI64
aI67
aI157
asS'ud'
p354
(lp355
I120
aI121
asS'ug'
p356
(lp357
I25
aI28
aI29
asS'ly'
p358
(lp359
I52
asS'ua'
p360
(lp361
I6
aI7
asS'uc'
p362
(lp363
I172
asS'ub'
p364
(lp365
I5
aI81
aI91
aI92
aI93
aI158
aI183
asS'va'
p366
(lp367
I29
aI102
aI105
aI108
aI112
aI115
aI141
aI188
asS'ac'
p368
(lp369
I75
aI85
asS'ab'
p370
(lp371
I139
asS'ae'
p372
(lp373
I10
asS've'
p374
(lp375
I12
aI14
aI57
aI103
aI106
aI113
aI116
aI132
aI164
aI165
aI195
asS'ag'
p376
(lp377
I6
aI7
aI102
aI105
aI108
aI112
aI115
aI141
asS'ai'
p378
(lp379
I16
aI16
aI18
aI19
aI19
aI22
aI23
aI33
aI78
aI88
aI161
asS'ip'
p380
(lp381
I39
aI40
aI41
aI42
aI44
aI118
aI156
asS'is'
p382
(lp383
I33
aI102
aI105
aI108
aI112
aI115
aI119
aI128
asS'ir'
p384
(lp385
I60
aI61
aI65
aI66
aI70
aI71
aI171
asS'am'
p386
(lp387
I7
aI101
aI102
aI103
aI104
aI105
aI106
aI111
aI112
aI113
aI114
aI115
aI116
aI129
aI136
aI145
aI146
aI150
aI151
aI182
asS'al'
p388
(lp389
I11
aI15
aI26
aI30
aI162
aI167
aI195
asS'vo'
p390
(lp391
I4
aI143
asS'as'
p392
(lp393
I8
aI9
aI63
aI68
aI69
aI134
aI135
aI148
aI153
aI163
aI190
asS'ar'
p394
(lp395
I32
aI34
aI39
aI40
aI41
aI42
aI44
aI188
asS'au'
p396
(lp397
I95
aI97
asS'at'
p398
(lp399
I3
aI13
aI15
aI39
aI41
aI42
aI73
aI81
aI83
aI91
aI92
aI93
aI103
aI106
aI113
aI116
aI117
aI130
aI132
aI134
aI134
aI135
aI149
aI154
aI155
aI166
aI167
aI168
aI175
aI191
aI194
aI195
asS'io'
p400
(lp401
I3
aI11
aI15
aI29
aI54
aI56
aI59
aI64
aI73
aI77
aI78
aI81
aI83
aI87
aI88
aI91
aI92
aI93
aI117
aI118
aI119
aI124
aI125
aI127
aI128
aI130
aI133
aI149
aI154
aI155
aI156
aI157
aI167
aI168
aI171
aI172
aI175
aI176
asS'in'
p402
(lp403
I7
aI12
aI14
aI16
aI16
aI18
aI19
aI19
aI22
aI23
aI34
aI42
aI43
aI43
aI60
aI65
aI70
aI109
aI122
aI131
aI147
aI152
aI161
aI165
aI172
aI176
aI179
aI183
aI185
asS'ic'
p404
(lp405
I3
aI39
aI40
aI41
aI42
aI44
aI81
aI91
aI92
aI93
aI123
aI126
aI159
asS'ib'
p406
(lp407
I0
aI1
aI2
aI5
asS'ie'
p408
(lp409
I62
aI67
aI188
aI192
asS'if'
p410
(lp411
I92
aI93
aI194
asS'ni'
p412
(lp413
I176
aI194
aI195
asS'k '
p414
(lp415
I89
aI165
asS'no'
p416
(lp417
I75
aI85
aI137
asS'il'
p418
(lp419
I130
aI149
aI154
asS'na'
p420
(lp421
I11
aI15
aI117
aI136
aI155
aI167
aI168
aI175
aI182
asS'nc'
p422
(lp423
I29
aI72
aI82
aI131
aI147
aI152
aI161
aI170
aI177
asS'nd'
p424
(lp425
I46
aI47
aI49
aI50
aI53
aI122
aI185
asS'ne'
p426
(lp427
I16
aI18
aI19
aI22
aI59
aI64
aI103
aI106
aI113
aI116
aI142
asS'ng'
p428
(lp429
I6
aI7
aI7
aI34
aI109
aI162
aI179
aI183
asS'nq'
p430
(lp431
I60
aI61
aI65
aI66
aI70
aI71
asS'ns'
p432
(lp433
I45
aI48
aI51
aI107
aI111
aI114
aI117
aI131
aI147
aI152
aI172
asS'nt'
p434
(lp435
I0
aI1
aI2
aI12
aI14
aI16
aI19
aI40
aI44
aI46
aI49
aI57
aI75
aI77
aI85
aI87
aI100
aI102
aI105
aI108
aI112
aI115
aI120
aI121
aI132
aI141
aI161
aI193
aI194
aI195
asS'nv'
p436
(lp437
I12
aI14
asS'a '
p438
(lp439
I29
asS'fa'
p440
(lp441
I143
asS'nk'
p442
(lp443
I165
asS'fe'
p444
(lp445
I11
aI15
aI37
aI72
aI82
aI110
aI138
asS'fi'
p446
(lp447
I92
aI93
aI142
aI176
asS'fo'
p448
(lp449
I32
aI34
aI187
aI194
asS'im'
p450
(lp451
I135
asS'ke'
p452
(lp453
I63
aI68
asS'ss'
p454
(lp455
I11
aI15
aI128
aI190
asS'ki'
p456
(lp457
I185
asS'sp'
p458
(lp459
I46
aI47
aI49
aI50
aI53
aI92
aI93
aI192
asS'sw'
p460
(lp461
I45
aI48
aI51
asS'kn'
p462
(lp463
I75
aI85
asS'su'
p464
(lp465
I5
aI18
aI22
aI23
aI25
aI28
aI29
aI55
aI92
aI93
aI158
aI183
asS'st'
p466
(lp467
I8
aI9
aI10
aI18
aI22
aI23
aI25
aI28
aI29
aI59
aI64
aI130
aI131
aI134
aI135
aI147
aI149
aI152
aI154
aI157
aI172
asS'sk'
p468
(lp469
I63
aI68
aI69
aI163
asS'si'
p470
(lp471
I11
aI15
aI119
aI128
asS'sh'
p472
(lp473
I109
aI144
aI173
asS'so'
p474
(lp475
I54
aI56
aI57
aI80
aI90
aI98
aI99
aI186
aI194
aI195
asS'sc'
p476
(lp477
I5
aI118
aI156
asS'sa'
p478
(lp479
I26
aI30
aI102
aI105
aI108
aI112
aI115
aI195
asS'se'
p480
(lp481
I24
aI27
aI31
aI33
aI35
aI124
aI132
aI148
aI153
as.