(dp1
I0
(imodel
Entity
p2
(dp3
S'word'
p4
S'contributor'
p5
sS'id'
p6
I0
sS'entity'
p7
S'Contributor'
p8
sbsI1
(imodel
Entity
p9
(dp10
g4
S'contributor of'
p11
sg6
I1
sg7
g8
sbsI2
(imodel
Entity
p12
(dp13
g4
S'contribute to'
p14
sg6
I2
sg7
g8
sbsI3
(imodel
Entity
p15
(dp16
g4
S'dedication'
p17
sg6
I3
sg7
g8
sbsI4
(imodel
Entity
p18
(dp19
g4
S'devote to'
p20
sg6
I4
sg7
g8
sbsI5
(imodel
Entity
p21
(dp22
g4
S'subscriber'
p23
sg6
I5
sg7
g8
sbsI6
(imodel
Entity
p24
(dp25
g4
S'language'
p26
sg6
I6
sg7
S'Language'
p27
sbsI7
(imodel
Entity
p28
(dp29
g4
S'programming language'
p30
sg6
I7
sg7
g27
sbsI8
(imodel
Entity
p31
(dp32
g4
S'master of'
p33
sg6
I8
sg7
S'Master'
p34
sbsI9
(imodel
Entity
p35
(dp36
g4
S'master'
p37
sg6
I9
sg7
g34
sbsI10
(imodel
Entity
p38
(dp39
g4
S'maestro'
p40
sg6
I10
sg7
g34
sbsI11
(imodel
Entity
p41
(dp42
g4
S'professional'
p43
sg6
I11
sg7
g34
sbsI12
(imodel
Entity
p44
(dp45
g4
S'inventor'
p46
sg6
I12
sg7
g34
sbsI13
(imodel
Entity
p47
(dp48
g4
S'create'
p49
sg6
I13
sg7
g34
sbsI14
(imodel
Entity
p50
(dp51
g4
S'inventor of'
p52
sg6
I14
sg7
g34
sbsI15
(imodel
Entity
p53
(dp54
g4
S'professional at'
p55
sg6
I15
sg7
g34
sbsI16
(imodel
Entity
p56
(dp57
g4
S'maintainer'
p58
sg6
I16
sg7
S'Maintainer'
p59
sbsI17
(imodel
Entity
p60
(dp61
g4
S'upholder'
p62
sg6
I17
sg7
g59
sbsI18
(imodel
Entity
p63
(dp64
g4
S'sustainer'
p65
sg6
I18
sg7
g59
sbsI19
(imodel
Entity
p66
(dp67
g4
S'maintainer of'
p68
sg6
I19
sg7
g59
sbsI20
(imodel
Entity
p69
(dp70
g4
S'upholder of'
p71
sg6
I20
sg7
g59
sbsI21
(imodel
Entity
p72
(dp73
g4
S'uphold'
p74
sg6
I21
sg7
g59
sbsI22
(imodel
Entity
p75
(dp76
g4
S'sustainer of'
p77
sg6
I22
sg7
g59
sbsI23
(imodel
Entity
p78
(dp79
g4
S'sustain'
p80
sg6
I23
sg7
g59
sbsI24
(imodel
Entity
p81
(dp82
g4
S'proposer'
p83
sg6
I24
sg7
S'Proposer'
p84
sbsI25
(imodel
Entity
p85
(dp86
g4
S'suggester'
p87
sg6
I25
sg7
g84
sbsI26
(imodel
Entity
p88
(dp89
g4
S'proposal'
p90
sg6
I26
sg7
g84
sbsI27
(imodel
Entity
p91
(dp92
g4
S'proposer of'
p93
sg6
I27
sg7
g84
sbsI28
(imodel
Entity
p94
(dp95
g4
S'suggest'
p96
sg6
I28
sg7
g84
sbsI29
(imodel
Entity
p97
(dp98
g4
S'advance a suggestion'
p99
sg6
I29
sg7
g84
sbsI30
(imodel
Entity
p100
(dp101
g4
S'proposal'
p102
sg6
I30
sg7
g84
sbsI31
(imodel
Entity
p103
(dp104
g4
S'propose'
p105
sg6
I31
sg7
g84
sbsI32
(imodel
Entity
p106
(dp107
g4
S'put forward'
p108
sg6
I32
sg7
g84
sbsI33
(imodel
Entity
p109
(dp110
g4
S'raise'
p111
sg6
I33
sg7
g84
sbsI34
(imodel
Entity
p112
(dp113
g4
S'bring forward'
p114
sg6
I34
sg7
g84
sbsI35
(imodel
Entity
p115
(dp116
g4
S'pose'
p117
sg6
I35
sg7
g84
sbsI36
(imodel
Entity
p118
(dp119
g4
S'member'
p120
sg6
I36
sg7
S'Member'
p121
sbsI37
(imodel
Entity
p122
(dp123
g4
S'fellow member'
p124
sg6
I37
sg7
g121
sbsI38
(imodel
Entity
p125
(dp126
g4
S'member of'
p127
sg6
I38
sg7
g121
sbsI39
(imodel
Entity
p128
(dp129
g4
S'participator'
p130
sg6
I39
sg7
S'Participator'
p131
sbsI40
(imodel
Entity
p132
(dp133
g4
S'participant'
p134
sg6
I40
sg7
g131
sbsI41
(imodel
Entity
p135
(dp136
g4
S'participator of'
p137
sg6
I41
sg7
g131
sbsI42
(imodel
Entity
p138
(dp139
g4
S'participate in'
p140
sg6
I42
sg7
g131
sbsI43
(imodel
Entity
p141
(dp142
g4
S'join in'
p143
sg6
I43
sg7
g131
sbsI44
(imodel
Entity
p144
(dp145
g4
S'participant'
p146
sg6
I44
sg7
g131
sbsI45
(imodel
Entity
p147
(dp148
g4
S'answerer'
p149
sg6
I45
sg7
S'Answerer'
p150
sbsI46
(imodel
Entity
p151
(dp152
g4
S'respondent'
p153
sg6
I46
sg7
g150
sbsI47
(imodel
Entity
p154
(dp155
g4
S'responder'
p156
sg6
I47
sg7
g150
sbsI48
(imodel
Entity
p157
(dp158
g4
S'answerer of'
p159
sg6
I48
sg7
g150
sbsI49
(imodel
Entity
p160
(dp161
g4
S'respondent of'
p162
sg6
I49
sg7
g150
sbsI50
(imodel
Entity
p163
(dp164
g4
S'responder of'
p165
sg6
I50
sg7
g150
sbsI51
(imodel
Entity
p166
(dp167
g4
S'answer'
p168
sg6
I51
sg7
g150
sbsI52
(imodel
Entity
p169
(dp170
g4
S'reply'
p171
sg6
I52
sg7
g150
sbsI53
(imodel
Entity
p172
(dp173
g4
S'respond'
p174
sg6
I53
sg7
g150
sbsI54
(imodel
Entity
p175
(dp176
g4
S'solution'
p177
sg6
I54
sg7
g150
sbsI55
(imodel
Entity
p178
(dp179
g4
S'result'
p180
sg6
I55
sg7
g150
sbsI56
(imodel
Entity
p181
(dp182
g4
S'resolution'
p183
sg6
I56
sg7
g150
sbsI57
(imodel
Entity
p184
(dp185
g4
S'solvent'
p186
sg6
I57
sg7
g150
sbsI58
(imodel
Entity
p187
(dp188
g4
S''
sg6
I58
sg7
g150
sbsI59
(imodel
Entity
p189
(dp190
g4
S'questioner'
p191
sg6
I59
sg7
S'Questioner'
p192
sbsI60
(imodel
Entity
p193
(dp194
g4
S'inquirer'
p195
sg6
I60
sg7
g192
sbsI61
(imodel
Entity
p196
(dp197
g4
S'enquirer'
p198
sg6
I61
sg7
g192
sbsI62
(imodel
Entity
p199
(dp200
g4
S'querier'
p201
sg6
I62
sg7
g192
sbsI63
(imodel
Entity
p202
(dp203
g4
S'asker'
p204
sg6
I63
sg7
g192
sbsI64
(imodel
Entity
p205
(dp206
g4
S'questioner of'
p207
sg6
I64
sg7
g192
sbsI65
(imodel
Entity
p208
(dp209
g4
S'inquirer of'
p210
sg6
I65
sg7
g192
sbsI66
(imodel
Entity
p211
(dp212
g4
S'enquirer of'
p213
sg6
I66
sg7
g192
sbsI67
(imodel
Entity
p214
(dp215
g4
S'querier of'
p216
sg6
I67
sg7
g192
sbsI68
(imodel
Entity
p217
(dp218
g4
S'asker of'
p219
sg6
I68
sg7
g192
sbsI69
(imodel
Entity
p220
(dp221
g4
S'ask'
p222
sg6
I69
sg7
g192
sbsI70
(imodel
Entity
p223
(dp224
g4
S'inquire'
p225
sg6
I70
sg7
g192
sbsI71
(imodel
Entity
p226
(dp227
g4
S'enquire'
p228
sg6
I71
sg7
g192
sbsI72
(imodel
Entity
p229
(dp230
g4
S'reference'
p231
sg6
I72
sg7
S'Reference'
p232
sbsI73
(imodel
Entity
p233
(dp234
g4
S'citation'
p235
sg6
I73
sg7
g232
sbsI74
(imodel
Entity
p236
(dp237
g4
S'cite'
p238
sg6
I74
sg7
g232
sbsI75
(imodel
Entity
p239
(dp240
g4
S'acknowledgement'
p241
sg6
I75
sg7
g232
sbsI76
(imodel
Entity
p242
(dp243
g4
S'credit'
p244
sg6
I76
sg7
g232
sbsI77
(imodel
Entity
p245
(dp246
g4
S'mention'
p247
sg6
I77
sg7
g232
sbsI78
(imodel
Entity
p248
(dp249
g4
S'quotaion'
p250
sg6
I78
sg7
g232
sbsI79
(imodel
Entity
p251
(dp252
g4
S'book'
p253
sg6
I79
sg7
g232
sbsI80
(imodel
Entity
p254
(dp255
g4
S'source'
p256
sg6
I80
sg7
g232
sbsI81
(imodel
Entity
p257
(dp258
g4
S'publication'
p259
sg6
I81
sg7
g232
sbsI82
(imodel
Entity
p260
(dp261
g4
S'reference of'
p262
sg6
I82
sg7
g232
sbsI83
(imodel
Entity
p263
(dp264
g4
S'citation of'
p265
sg6
I83
sg7
g232
sbsI84
(imodel
Entity
p266
(dp267
g4
S'cited by'
p268
sg6
I84
sg7
g232
sbsI85
(imodel
Entity
p269
(dp270
g4
S'acknowledgement of'
p271
sg6
I85
sg7
g232
sbsI86
(imodel
Entity
p272
(dp273
g4
S'credited by'
p274
sg6
I86
sg7
g232
sbsI87
(imodel
Entity
p275
(dp276
g4
S'mention of'
p277
sg6
I87
sg7
g232
sbsI88
(imodel
Entity
p278
(dp279
g4
S'quotaion of'
p280
sg6
I88
sg7
g232
sbsI89
(imodel
Entity
p281
(dp282
g4
S'book of'
p283
sg6
I89
sg7
g232
sbsI90
(imodel
Entity
p284
(dp285
g4
S'source of'
p286
sg6
I90
sg7
g232
sbsI91
(imodel
Entity
p287
(dp288
g4
S'publication of'
p289
sg6
I91
sg7
g232
sbsI92
(imodel
Entity
p290
(dp291
g4
S'sub specification'
p292
sg6
I92
sg7
S'SubSpecification'
p293
sbsI93
(imodel
Entity
p294
(dp295
g4
S'sub specification of'
p296
sg6
I93
sg7
g293
sbsI94
(imodel
Entity
p297
(dp298
g4
S'writer'
p299
sg6
I94
sg7
S'Writer'
p300
sbsI95
(imodel
Entity
p301
(dp302
g4
S'author'
p303
sg6
I95
sg7
g300
sbsI96
(imodel
Entity
p304
(dp305
g4
S'writer of'
p306
sg6
I96
sg7
g300
sbsI97
(imodel
Entity
p307
(dp308
g4
S'author of'
p309
sg6
I97
sg7
g300
sbsI98
(imodel
Entity
p310
(dp311
g4
S'source'
p312
sg6
I98
sg7
S'Source'
p313
sbsI99
(imodel
Entity
p314
(dp315
g4
S'source of'
p316
sg6
I99
sg7
g313
sbsI100
(imodel
Entity
p317
(dp318
g4
S'document of'
p319
sg6
I100
sg7
g313
sbsI101
(imodel
Entity
p320
(dp321
g4
S'bad example'
p322
sg6
I101
sg7
S'BadExample'
p323
sbsI102
(imodel
Entity
p324
(dp325
g4
S'disadvantageous example'
p326
sg6
I102
sg7
g323
sbsI103
(imodel
Entity
p327
(dp328
g4
S'negative example'
p329
sg6
I103
sg7
g323
sbsI104
(imodel
Entity
p330
(dp331
g4
S'bad code example'
p332
sg6
I104
sg7
S'BadCodeExample'
p333
sbsI105
(imodel
Entity
p334
(dp335
g4
S'disadvantageous code example'
p336
sg6
I105
sg7
g333
sbsI106
(imodel
Entity
p337
(dp338
g4
S'negative code example'
p339
sg6
I106
sg7
g333
sbsI107
(imodel
Entity
p340
(dp341
g4
S'cons'
p342
sg6
I107
sg7
S'Cons'
p343
sbsI108
(imodel
Entity
p344
(dp345
g4
S'disadvantage'
p346
sg6
I108
sg7
g343
sbsI109
(imodel
Entity
p347
(dp348
g4
S'shortcoming'
p349
sg6
I109
sg7
g343
sbsI110
(imodel
Entity
p350
(dp351
g4
S'defect'
p352
sg6
I110
sg7
g343
sbsI111
(imodel
Entity
p353
(dp354
g4
S'cons example'
p355
sg6
I111
sg7
S'ConsExample'
p356
sbsI112
(imodel
Entity
p357
(dp358
g4
S'disadvantageous example'
p359
sg6
I112
sg7
g356
sbsI113
(imodel
Entity
p360
(dp361
g4
S'negative example'
p362
sg6
I113
sg7
g356
sbsI114
(imodel
Entity
p363
(dp364
g4
S'cons code example'
p365
sg6
I114
sg7
S'ConsCodeExample'
p366
sbsI115
(imodel
Entity
p367
(dp368
g4
S'disadvantageous code example'
p369
sg6
I115
sg7
g366
sbsI116
(imodel
Entity
p370
(dp371
g4
S'negative code example'
p372
sg6
I116
sg7
g366
sbsI117
(imodel
Entity
p373
(dp374
g4
S'cons explanation'
p375
sg6
I117
sg7
S'ConsExplanation'
p376
sbsI118
(imodel
Entity
p377
(dp378
g4
S'bad description'
p379
sg6
I118
sg7
g376
sbsI119
(imodel
Entity
p380
(dp381
g4
S'decision'
p382
sg6
I119
sg7
S'Decision'
p383
sbsI120
(imodel
Entity
p384
(dp385
g4
S'judgment'
p386
sg6
I120
sg7
g383
sbsI121
(imodel
Entity
p387
(dp388
g4
S'judgement'
p389
sg6
I121
sg7
g383
sbsI122
(imodel
Entity
p390
(dp391
g4
S'mind'
p392
sg6
I122
sg7
g383
sbsI123
(imodel
Entity
p393
(dp394
g4
S'choice'
p395
sg6
I123
sg7
g383
sbsI124
(imodel
Entity
p396
(dp397
g4
S'selection'
p398
sg6
I124
sg7
g383
sbsI125
(imodel
Entity
p399
(dp400
g4
S'option'
p401
sg6
I125
sg7
g383
sbsI126
(imodel
Entity
p402
(dp403
g4
S'pick'
p404
sg6
I126
sg7
g383
sbsI127
(imodel
Entity
p405
(dp406
g4
S'exception'
p407
sg6
I127
sg7
S'Exception'
p408
sbsI128
(imodel
Entity
p409
(dp410
g4
S'omission'
p411
sg6
I128
sg7
g408
sbsI129
(imodel
Entity
p412
(dp413
g4
S'example'
p414
sg6
I129
sg7
g408
sbsI130
(imodel
Entity
p415
(dp416
g4
S'illustration'
p417
sg6
I130
sg7
g408
sbsI131
(imodel
Entity
p418
(dp419
g4
S'instance'
p420
sg6
I131
sg7
g408
sbsI132
(imodel
Entity
p421
(dp422
g4
S'representative'
p423
sg6
I132
sg7
g408
sbsI133
(imodel
Entity
p424
(dp425
g4
S'objection'
p426
sg6
I133
sg7
g408
sbsI134
(imodel
Entity
p427
(dp428
g4
S'last updated date'
p429
sg6
I134
sg7
S'LastUpdatedDate'
p430
sbsI135
(imodel
Entity
p431
(dp432
g4
S'last updated time'
p433
sg6
I135
sg7
g430
sbsI136
(imodel
Entity
p434
(dp435
g4
S'name'
p436
sg6
I136
sg7
S'Name'
p437
sbsI137
(imodel
Entity
p438
(dp439
g4
S'denote'
p440
sg6
I137
sg7
g437
sbsI138
(imodel
Entity
p441
(dp442
g4
S'refer'
p443
sg6
I138
sg7
g437
sbsI139
(imodel
Entity
p444
(dp445
g4
S'label'
p446
sg6
I139
sg7
g437
sbsI140
(imodel
Entity
p447
(dp448
g4
S'pros'
p449
sg6
I140
sg7
S'Pros'
p450
sbsI141
(imodel
Entity
p451
(dp452
g4
S'advantage'
p453
sg6
I141
sg7
g450
sbsI142
(imodel
Entity
p454
(dp455
g4
S'benefit'
p456
sg6
I142
sg7
g450
sbsI143
(imodel
Entity
p457
(dp458
g4
S'favour'
p459
sg6
I143
sg7
g450
sbsI144
(imodel
Entity
p460
(dp461
g4
S'why should i'
p462
sg6
I144
sg7
g450
sbsI145
(imodel
Entity
p463
(dp464
g4
S'pros example'
p465
sg6
I145
sg7
S'ProsExample'
p466
sbsI146
(imodel
Entity
p467
(dp468
g4
S'good example'
p469
sg6
I146
sg7
g466
sbsI147
(imodel
Entity
p470
(dp471
g4
S'good instance'
p472
sg6
I147
sg7
g466
sbsI148
(imodel
Entity
p473
(dp474
g4
S'good case'
p475
sg6
I148
sg7
g466
sbsI149
(imodel
Entity
p476
(dp477
g4
S'good illustration'
p478
sg6
I149
sg7
g466
sbsI150
(imodel
Entity
p479
(dp480
g4
S'pros code example'
p481
sg6
I150
sg7
S'ProsCodeExample'
p482
sbsI151
(imodel
Entity
p483
(dp484
g4
S'good code example'
p485
sg6
I151
sg7
g482
sbsI152
(imodel
Entity
p486
(dp487
g4
S'good code instance'
p488
sg6
I152
sg7
g482
sbsI153
(imodel
Entity
p489
(dp490
g4
S'good code case'
p491
sg6
I153
sg7
g482
sbsI154
(imodel
Entity
p492
(dp493
g4
S'good code illustration'
p494
sg6
I154
sg7
g482
sbsI155
(imodel
Entity
p495
(dp496
g4
S'pros explanation'
p497
sg6
I155
sg7
S'ProsExplanation'
p498
sbsI156
(imodel
Entity
p499
(dp500
g4
S'good description'
p501
sg6
I156
sg7
g498
sbsI157
(imodel
Entity
p502
(dp503
g4
S'question'
p504
sg6
I157
sg7
S'Question'
p505
sbsI158
(imodel
Entity
p506
(dp507
g4
S'subject'
p508
sg6
I158
sg7
g505
sbsI159
(imodel
Entity
p509
(dp510
g4
S'topic'
p511
sg6
I159
sg7
g505
sbsI160
(imodel
Entity
p512
(dp513
g4
S'theme'
p514
sg6
I160
sg7
g505
sbsI161
(imodel
Entity
p515
(dp516
g4
S'uncertainty'
p517
sg6
I161
sg7
g505
sbsI162
(imodel
Entity
p518
(dp519
g4
S'challenge'
p520
sg6
I162
sg7
g505
sbsI163
(imodel
Entity
p521
(dp522
g4
S'ask'
p523
sg6
I163
sg7
g505
sbsI164
(imodel
Entity
p524
(dp525
g4
S'chew over'
p526
sg6
I164
sg7
g505
sbsI165
(imodel
Entity
p527
(dp528
g4
S'think over'
p529
sg6
I165
sg7
g505
sbsI166
(imodel
Entity
p530
(dp531
g4
S'meditate'
p532
sg6
I166
sg7
g505
sbsI167
(imodel
Entity
p533
(dp534
g4
S'rationale'
p535
sg6
I167
sg7
S'Rationale'
p536
sbsI168
(imodel
Entity
p537
(dp538
g4
S'explanation'
p539
sg6
I168
sg7
g536
sbsI169
(imodel
Entity
p540
(dp541
g4
S'rule'
p542
sg6
I169
sg7
S'Rule'
p543
sbsI170
(imodel
Entity
p544
(dp545
g4
S'concept'
p546
sg6
I170
sg7
g543
sbsI171
(imodel
Entity
p547
(dp548
g4
S'direction'
p549
sg6
I171
sg7
g543
sbsI172
(imodel
Entity
p550
(dp551
g4
S'instruction'
p552
sg6
I172
sg7
g543
sbsI173
(imodel
Entity
p553
(dp554
g4
S'how should i'
p555
sg6
I173
sg7
g543
sbsI174
(imodel
Entity
p556
(dp557
g4
S'how to'
p558
sg6
I174
sg7
g543
sbsI175
(imodel
Entity
p559
(dp560
g4
S'rule explanation'
p561
sg6
I175
sg7
S'RuleExplanation'
p562
sbsI176
(imodel
Entity
p563
(dp564
g4
S'rule definition'
p565
sg6
I176
sg7
g562
sbsI177
(imodel
Entity
p566
(dp567
g4
S'rule concept'
p568
sg6
I177
sg7
g562
sbsI178
(imodel
Entity
p569
(dp570
g4
S'title'
p571
sg6
I178
sg7
S'Title'
p572
sbsI179
(imodel
Entity
p573
(dp574
g4
S'heading'
p575
sg6
I179
sg7
g572
sbsI180
(imodel
Entity
p576
(dp577
g4
S'header'
p578
sg6
I180
sg7
g572
sbsI181
(imodel
Entity
p579
(dp580
g4
S'head'
p581
sg6
I181
sg7
g572
sbsI182
(imodel
Entity
p582
(dp583
g4
S'name'
p584
sg6
I182
sg7
g572
sbsI183
(imodel
Entity
p585
(dp586
g4
S'subheading'
p587
sg6
I183
sg7
g572
sbsI184
(imodel
Entity
p588
(dp589
g4
S'type'
p590
sg6
I184
sg7
S'Type'
p591
sbsI185
(imodel
Entity
p592
(dp593
g4
S'kind'
p594
sg6
I185
sg7
g591
sbsI186
(imodel
Entity
p595
(dp596
g4
S'sort'
p597
sg6
I186
sg7
g591
sbsI187
(imodel
Entity
p598
(dp599
g4
S'form'
p600
sg6
I187
sg7
g591
sbsI188
(imodel
Entity
p601
(dp602
g4
S'variety'
p603
sg6
I188
sg7
g591
sbsI189
(imodel
Entity
p604
(dp605
g4
S'group'
p606
sg6
I189
sg7
g591
sbsI190
(imodel
Entity
p607
(dp608
g4
S'class'
p609
sg6
I190
sg7
g591
sbsI191
(imodel
Entity
p610
(dp611
g4
S'category'
p612
sg6
I191
sg7
g591
sbsI192
(imodel
Entity
p613
(dp614
g4
S'species'
p615
sg6
I192
sg7
g591
sbsI193
(imodel
Entity
p616
(dp617
g4
S'document url'
p618
sg6
I193
sg7
S'DocumentUrl'
p619
sbsI194
(imodel
Entity
p620
(dp621
g4
S'document uniform_resource_locator'
p622
sg6
I194
sg7
g619
sbsI195
(imodel
Entity
p623
(dp624
g4
S'document universal_resource_locator'
p625
sg6
I195
sg7
g619
sbs.